Certificate:
    Data:
        Version: 1 (0x0)
        Serial Number: 1 (0x1)
        Signature Algorithm: sha256WithRSAEncryption
        Issuer: C=JP, ST=Aichi, L=Nagoya, O=Internet Widgits Pty Ltd, CN=TEST
        Validity
            Not Before: Feb  6 05:59:07 2023 GMT
            Not After : Feb  6 05:59:07 2024 GMT
        Subject: C=JP, ST=Aichi, L=Nagoya, O=Internet Widgits Pty Ltd, CN=TESTserver
        Subject Public Key Info:
            Public Key Algorithm: rsaEncryption
                Public-Key: (2048 bit)
                Modulus:
                    00:ae:68:94:19:d2:37:ed:60:9c:1f:74:a9:95:62:
                    38:ca:71:f2:20:dc:8d:68:d7:1d:d7:65:f2:b6:e6:
                    d1:80:88:ca:1d:c3:e4:64:2d:9f:c2:a0:d6:43:a1:
                    5e:e1:d5:12:51:32:89:cd:a4:6d:0a:fa:e6:1f:18:
                    66:49:4d:61:e3:a6:62:34:a6:99:09:70:fd:4d:22:
                    e2:8b:bd:39:a1:0e:a7:71:7e:4e:20:d5:e9:41:91:
                    1a:5d:4d:5b:1b:4d:dc:38:dd:e5:82:eb:c3:1b:55:
                    23:d5:5a:b7:2d:af:97:be:f5:d9:e4:ed:49:e4:5b:
                    ad:21:ef:69:5a:37:bd:77:23:da:75:25:fe:5d:e7:
                    ed:94:20:6e:26:6f:bd:c9:54:e3:bf:b5:38:db:86:
                    96:4c:72:49:25:2c:24:f8:5c:78:15:eb:b4:f3:25:
                    c3:0f:73:1f:77:03:a6:24:bb:75:99:8a:85:3c:43:
                    9f:2e:68:e0:01:07:7f:fe:b8:3a:94:2c:ef:61:d9:
                    24:07:74:2e:bc:e1:c8:5a:3a:94:e6:8b:2e:e6:18:
                    23:c8:9a:5c:c5:b2:0a:4c:4e:9b:b6:95:9f:3e:e1:
                    86:84:92:f9:0d:06:49:a2:3d:16:ed:70:36:35:3f:
                    09:08:68:83:ad:7c:1f:de:2a:84:dc:79:77:48:f1:
                    e5:e7
                Exponent: 65537 (0x10001)
    Signature Algorithm: sha256WithRSAEncryption
    Signature Value:
        21:77:bd:e8:70:f8:ce:eb:8f:4e:4c:0a:42:d2:14:5b:e5:3b:
        7d:b0:68:10:21:d0:eb:a8:90:e4:07:c9:dd:9b:68:58:09:e1:
        fc:28:d5:18:c7:dd:65:a7:a6:95:ad:da:6f:26:a5:2a:f7:4d:
        1d:0e:66:3f:3c:14:e8:1d:bc:77:09:47:39:db:06:6a:59:0b:
        8a:a5:f6:50:b8:0e:b6:cb:fc:4f:5d:b0:71:1f:3f:a3:52:4c:
        1c:d8:e0:ec:b0:2c:71:41:98:c9:f2:9c:21:54:5d:a0:0a:d8:
        1a:38:a4:ea:e1:09:9a:a3:31:43:4d:36:72:27:8a:70:c7:6b:
        f2:d1:00:b5:30:07:eb:71:c2:73:8f:44:9f:63:c1:71:fc:ad:
        0e:d5:49:17:b3:a0:95:1b:14:b9:d7:48:df:67:1c:28:eb:d2:
        91:ca:6d:8f:fc:72:eb:aa:26:ff:86:46:a8:a1:6d:fd:14:f2:
        c2:ff:2f:b7:3d:61:70:5d:02:d7:53:7e:b6:36:bd:b2:0e:f5:
        00:8f:88:df:a8:d5:7f:b7:12:ff:1a:44:db:58:7e:25:4c:36:
        11:56:da:64:68:57:44:3b:dd:75:42:6a:12:86:25:52:72:46:
        04:bc:c3:f5:bc:e8:d2:87:9f:1f:c4:cf:03:a2:87:41:25:34:
        b2:4c:3c:3d
-----BEGIN CERTIFICATE-----
MIIDOjCCAiICAQEwDQYJKoZIhvcNAQELBQAwYDELMAkGA1UEBhMCSlAxDjAMBgNV
BAgMBUFpY2hpMQ8wDQYDVQQHDAZOYWdveWExITAfBgNVBAoMGEludGVybmV0IFdp
ZGdpdHMgUHR5IEx0ZDENMAsGA1UEAwwEVEVTVDAeFw0yMzAyMDYwNTU5MDdaFw0y
NDAyMDYwNTU5MDdaMGYxCzAJBgNVBAYTAkpQMQ4wDAYDVQQIDAVBaWNoaTEPMA0G
A1UEBwwGTmFnb3lhMSEwHwYDVQQKDBhJbnRlcm5ldCBXaWRnaXRzIFB0eSBMdGQx
EzARBgNVBAMMClRFU1RzZXJ2ZXIwggEiMA0GCSqGSIb3DQEBAQUAA4IBDwAwggEK
AoIBAQCuaJQZ0jftYJwfdKmVYjjKcfIg3I1o1x3XZfK25tGAiModw+RkLZ/CoNZD
oV7h1RJRMonNpG0K+uYfGGZJTWHjpmI0ppkJcP1NIuKLvTmhDqdxfk4g1elBkRpd
TVsbTdw43eWC68MbVSPVWrctr5e+9dnk7UnkW60h72laN713I9p1Jf5d5+2UIG4m
b73JVOO/tTjbhpZMckklLCT4XHgV67TzJcMPcx93A6Yku3WZioU8Q58uaOABB3/+
uDqULO9h2SQHdC684chaOpTmiy7mGCPImlzFsgpMTpu2lZ8+4YaEkvkNBkmiPRbt
cDY1PwkIaIOtfB/eKoTceXdI8eXnAgMBAAEwDQYJKoZIhvcNAQELBQADggEBACF3
vehw+M7rj05MCkLSFFvlO32waBAh0OuokOQHyd2baFgJ4fwo1RjH3WWnppWt2m8m
pSr3TR0OZj88FOgdvHcJRznbBmpZC4ql9lC4DrbL/E9dsHEfP6NSTBzY4OywLHFB
mMnynCFUXaAK2Bo4pOrhCZqjMUNNNnIninDHa/LRALUwB+txwnOPRJ9jwXH8rQ7V
SRezoJUbFLnXSN9nHCjr0pHKbY/8cuuqJv+GRqihbf0U8sL/L7c9YXBdAtdTfrY2
vbIO9QCPiN+o1X+3Ev8aRNtYfiVMNhFW2mRoV0Q73XVCahKGJVJyRgS8w/W86NKH
nx/EzwOih0ElNLJMPD0=
-----END CERTIFICATE-----
