Certificate:
    Data:
        Version: 3 (0x2)
        Serial Number: 2 (0x2)
        Signature Algorithm: ecdsa-with-SHA256
        Issuer: C=AU, ST=Some-State, O=Internet Widgits Pty Ltd, CN=Root
        Validity
            Not Before: Jul 17 00:45:30 2025 GMT
            Not After : Jul 17 00:45:30 2026 GMT
        Subject: CN=192.168.0.10
        Subject Public Key Info:
            Public Key Algorithm: id-ecPublicKey
                Public-Key: (256 bit)
                pub:
                    04:7c:82:d0:35:42:5c:bd:aa:72:5e:4d:05:c1:32:
                    b6:dc:21:80:ed:e4:c9:99:89:89:c9:73:34:c2:17:
                    3f:57:56:6e:7e:c6:7c:c2:ba:cb:8e:e4:0a:f8:a9:
                    50:8c:e0:f0:16:af:1f:a3:f5:de:c9:f6:bb:86:1c:
                    08:23:c1:21:9d
                ASN1 OID: prime256v1
                NIST CURVE: P-256
        X509v3 extensions:
            X509v3 Basic Constraints: 
                CA:FALSE
            X509v3 Subject Key Identifier: 
                53:04:60:9B:08:14:51:FA:38:C8:45:38:17:EA:97:67:12:7E:94:F6
            X509v3 Authority Key Identifier: 
                80:6B:F7:F0:4C:2E:32:E6:BC:5E:5F:64:A6:8C:D4:FA:6B:67:F1:EB
    Signature Algorithm: ecdsa-with-SHA256
    Signature Value:
        30:44:02:20:0c:74:46:fd:65:19:e4:e3:4e:4e:86:15:15:27:
        01:c4:c4:44:de:c6:26:2f:9f:b7:bf:23:48:80:18:45:43:0d:
        02:20:27:d7:f9:bc:22:b0:de:e8:11:d5:ec:47:00:e2:7e:0a:
        a2:31:cc:64:ec:2a:8b:12:33:dd:ed:fd:80:e9:29:49
-----BEGIN CERTIFICATE-----
MIIBpjCCAU2gAwIBAgIBAjAKBggqhkjOPQQDAjBUMQswCQYDVQQGEwJBVTETMBEG
A1UECAwKU29tZS1TdGF0ZTEhMB8GA1UECgwYSW50ZXJuZXQgV2lkZ2l0cyBQdHkg
THRkMQ0wCwYDVQQDDARSb290MB4XDTI1MDcxNzAwNDUzMFoXDTI2MDcxNzAwNDUz
MFowFzEVMBMGA1UEAwwMMTkyLjE2OC4wLjEwMFkwEwYHKoZIzj0CAQYIKoZIzj0D
AQcDQgAEfILQNUJcvapyXk0FwTK23CGA7eTJmYmJyXM0whc/V1ZufsZ8wrrLjuQK
+KlQjODwFq8fo/Xeyfa7hhwII8EhnaNNMEswCQYDVR0TBAIwADAdBgNVHQ4EFgQU
UwRgmwgUUfo4yEU4F+qXZxJ+lPYwHwYDVR0jBBgwFoAUgGv38EwuMua8Xl9kpozU
+mtn8eswCgYIKoZIzj0EAwIDRwAwRAIgDHRG/WUZ5ONOToYVFScBxMRE3sYmL5+3
vyNIgBhFQw0CICfX+bwisN7oEdXsRwDifgqiMcxk7CqLEjPd7f2A6SlJ
-----END CERTIFICATE-----
