Certificate:
    Data:
        Version: 3 (0x2)
        Serial Number: 1 (0x1)
        Signature Algorithm: ecdsa-with-SHA256
        Issuer: C=AU, ST=Some-State, O=Internet Widgits Pty Ltd, CN=Root
        Validity
            Not Before: Jul 17 00:45:15 2025 GMT
            Not After : Jul 17 00:45:15 2026 GMT
        Subject: CN=192.168.0.11
        Subject Public Key Info:
            Public Key Algorithm: id-ecPublicKey
                Public-Key: (256 bit)
                pub:
                    04:69:31:15:7c:a6:41:15:6c:bf:e9:1a:74:3c:fe:
                    e5:26:d3:b8:90:e2:1e:08:27:5a:71:31:b6:43:c1:
                    7c:d7:bc:23:4d:e3:e4:19:02:c9:33:f6:30:06:a3:
                    a2:16:40:1c:9b:ca:ca:ee:37:e3:fe:be:1e:3c:59:
                    4a:e6:b3:51:a6
                ASN1 OID: prime256v1
                NIST CURVE: P-256
        X509v3 extensions:
            X509v3 Basic Constraints: 
                CA:FALSE
            X509v3 Subject Key Identifier: 
                A5:E9:84:A8:AF:B7:0E:A2:1B:0B:63:55:FD:56:3C:BB:3E:8E:EC:94
            X509v3 Authority Key Identifier: 
                80:6B:F7:F0:4C:2E:32:E6:BC:5E:5F:64:A6:8C:D4:FA:6B:67:F1:EB
    Signature Algorithm: ecdsa-with-SHA256
    Signature Value:
        30:45:02:21:00:f9:03:d7:7f:77:57:a6:05:0e:98:7f:02:64:
        81:bb:6b:76:4f:77:51:c0:80:0d:58:2d:62:ed:5b:b5:c4:ae:
        fd:02:20:55:0b:c7:6a:22:37:4a:26:03:c8:52:d6:4c:3d:d5:
        4d:33:e0:0b:0d:32:97:5a:e9:5d:0f:fb:d9:53:86:e8:68
-----BEGIN CERTIFICATE-----
MIIBpzCCAU2gAwIBAgIBATAKBggqhkjOPQQDAjBUMQswCQYDVQQGEwJBVTETMBEG
A1UECAwKU29tZS1TdGF0ZTEhMB8GA1UECgwYSW50ZXJuZXQgV2lkZ2l0cyBQdHkg
THRkMQ0wCwYDVQQDDARSb290MB4XDTI1MDcxNzAwNDUxNVoXDTI2MDcxNzAwNDUx
NVowFzEVMBMGA1UEAwwMMTkyLjE2OC4wLjExMFkwEwYHKoZIzj0CAQYIKoZIzj0D
AQcDQgAEaTEVfKZBFWy/6Rp0PP7lJtO4kOIeCCdacTG2Q8F817wjTePkGQLJM/Yw
BqOiFkAcm8rK7jfj/r4ePFlK5rNRpqNNMEswCQYDVR0TBAIwADAdBgNVHQ4EFgQU
pemEqK+3DqIbC2NV/VY8uz6O7JQwHwYDVR0jBBgwFoAUgGv38EwuMua8Xl9kpozU
+mtn8eswCgYIKoZIzj0EAwIDSAAwRQIhAPkD1393V6YFDph/AmSBu2t2T3dRwIAN
WC1i7Vu1xK79AiBVC8dqIjdKJgPIUtZMPdVNM+ALDTKXWuldD/vZU4boaA==
-----END CERTIFICATE-----
