Certificate:
    Data:
        Version: 1 (0x0)
        Serial Number: 2 (0x2)
        Signature Algorithm: sha256WithRSAEncryption
        Issuer: C=JP, ST=Aichi, L=Nagoya, O=Internet Widgits Pty Ltd, CN=TEST
        Validity
            Not Before: Feb  6 06:01:31 2023 GMT
            Not After : Feb  6 06:01:31 2024 GMT
        Subject: C=JP, ST=Aichi, L=Nagoya, O=Internet Widgits Pty Ltd, CN=TESTclient
        Subject Public Key Info:
            Public Key Algorithm: rsaEncryption
                Public-Key: (2048 bit)
                Modulus:
                    00:b9:3f:5b:21:1e:b0:6b:17:81:5e:03:3b:94:26:
                    61:8a:96:80:77:32:ff:41:10:85:ce:12:da:e2:27:
                    ae:c8:9a:ea:f8:86:78:24:e3:23:4b:ab:b6:80:4d:
                    5d:67:17:54:cd:e2:24:75:74:a8:84:82:4a:b7:76:
                    51:bc:02:ce:cd:97:b4:f1:fe:83:91:e5:73:27:e9:
                    e2:05:ad:43:16:03:20:58:6b:aa:cd:76:33:68:9c:
                    2a:0b:81:4c:8e:1f:c6:12:9d:04:a4:ee:a1:89:c5:
                    e3:7c:24:80:87:a3:c1:65:3e:e3:0b:49:8b:9a:1d:
                    36:7d:dc:7b:6f:41:a5:b9:c8:c5:6f:69:25:af:41:
                    e1:de:8f:01:12:58:20:a0:fb:2c:e5:c3:e9:60:69:
                    35:72:f3:88:e0:38:95:fb:35:47:2e:58:75:28:bf:
                    79:68:fb:5a:f2:3b:b8:3b:d3:d9:17:9a:5f:1a:ad:
                    ca:20:be:76:2e:14:3d:8c:0f:e3:70:71:13:e7:9d:
                    9f:30:01:20:15:41:13:ea:fe:cf:44:94:6f:04:4c:
                    b1:40:4a:a9:35:a2:71:f2:51:ff:10:e0:84:9f:ff:
                    43:68:56:63:20:a5:e1:48:8b:b5:7e:8a:14:80:4a:
                    54:74:4c:32:5b:4d:62:41:ab:de:71:12:85:2f:1b:
                    ff:11
                Exponent: 65537 (0x10001)
    Signature Algorithm: sha256WithRSAEncryption
    Signature Value:
        cc:c2:f6:b6:0f:b3:44:0f:da:c7:c0:03:7d:b8:84:08:3c:17:
        78:8e:a0:64:b3:96:45:a1:99:a2:d6:bf:60:81:b9:56:c7:fc:
        b8:46:a1:a6:9d:d5:e1:af:4a:51:5c:b3:e3:a3:15:11:58:4f:
        94:37:99:ca:ca:7a:be:5c:9f:04:12:6f:0d:fe:cc:a6:94:35:
        d3:30:3e:28:71:c5:b6:5d:bc:33:2c:b3:73:61:e9:93:a3:48:
        cf:5f:36:33:e6:cc:a2:bf:58:ee:82:26:a9:ee:b7:11:64:05:
        46:4e:8e:73:25:56:7a:d2:82:8e:f0:b9:ec:e9:bd:2e:ef:24:
        ee:85:cb:99:c7:be:90:28:20:b0:37:11:b8:77:d2:6a:e3:b4:
        9a:39:0c:67:d5:1a:a2:38:be:6b:22:8a:c3:11:cd:63:66:e8:
        2d:f0:5d:44:94:c7:8b:a4:ea:df:9b:dd:f9:df:e0:2d:4c:6b:
        c5:65:a5:1d:65:b2:d6:ad:b9:fd:53:58:0e:d7:9f:97:5f:14:
        2f:b4:46:07:0f:62:27:38:5c:db:96:93:6e:8f:75:1d:74:a2:
        b0:cc:2f:57:1c:30:3e:06:8a:c0:7c:f8:6d:d4:57:da:18:40:
        01:62:2b:20:14:53:16:76:2e:64:f6:2e:8c:0d:fc:32:a6:39:
        cd:70:ac:78
-----BEGIN CERTIFICATE-----
MIIDOjCCAiICAQIwDQYJKoZIhvcNAQELBQAwYDELMAkGA1UEBhMCSlAxDjAMBgNV
BAgMBUFpY2hpMQ8wDQYDVQQHDAZOYWdveWExITAfBgNVBAoMGEludGVybmV0IFdp
ZGdpdHMgUHR5IEx0ZDENMAsGA1UEAwwEVEVTVDAeFw0yMzAyMDYwNjAxMzFaFw0y
NDAyMDYwNjAxMzFaMGYxCzAJBgNVBAYTAkpQMQ4wDAYDVQQIDAVBaWNoaTEPMA0G
A1UEBwwGTmFnb3lhMSEwHwYDVQQKDBhJbnRlcm5ldCBXaWRnaXRzIFB0eSBMdGQx
EzARBgNVBAMMClRFU1RjbGllbnQwggEiMA0GCSqGSIb3DQEBAQUAA4IBDwAwggEK
AoIBAQC5P1shHrBrF4FeAzuUJmGKloB3Mv9BEIXOEtriJ67Imur4hngk4yNLq7aA
TV1nF1TN4iR1dKiEgkq3dlG8As7Nl7Tx/oOR5XMn6eIFrUMWAyBYa6rNdjNonCoL
gUyOH8YSnQSk7qGJxeN8JICHo8FlPuMLSYuaHTZ93HtvQaW5yMVvaSWvQeHejwES
WCCg+yzlw+lgaTVy84jgOJX7NUcuWHUov3lo+1ryO7g709kXml8arcogvnYuFD2M
D+NwcRPnnZ8wASAVQRPq/s9ElG8ETLFASqk1onHyUf8Q4ISf/0NoVmMgpeFIi7V+
ihSASlR0TDJbTWJBq95xEoUvG/8RAgMBAAEwDQYJKoZIhvcNAQELBQADggEBAMzC
9rYPs0QP2sfAA324hAg8F3iOoGSzlkWhmaLWv2CBuVbH/LhGoaad1eGvSlFcs+Oj
FRFYT5Q3mcrKer5cnwQSbw3+zKaUNdMwPihxxbZdvDMss3Nh6ZOjSM9fNjPmzKK/
WO6CJqnutxFkBUZOjnMlVnrSgo7wuezpvS7vJO6Fy5nHvpAoILA3Ebh30mrjtJo5
DGfVGqI4vmsiisMRzWNm6C3wXUSUx4uk6t+b3fnf4C1Ma8VlpR1lstatuf1TWA7X
n5dfFC+0RgcPYic4XNuWk26PdR10orDML1ccMD4GisB8+G3UV9oYQAFiKyAUUxZ2
LmT2LowN/DKmOc1wrHg=
-----END CERTIFICATE-----
